; Function Attrs: mustprogress uwtable
define void @_ZN18VoipCallsInfoModel12setTimeOfDayEb(ptr noundef nonnull align 8 dereferenceable(41) %0, i1 noundef zeroext %1) local_unnamed_addr #0 align 2 personality ptr @__gxx_personality_v0 {
  %3 = alloca %class.QModelIndex, align 8
  %4 = alloca %class.QModelIndex, align 8
  %5 = alloca %class.QModelIndex, align 8
  %6 = alloca %class.QModelIndex, align 8
  %7 = alloca %class.QModelIndex, align 8
  %8 = alloca %class.QModelIndex, align 8
  %9 = alloca %class.QList.1, align 8
  %10 = zext i1 %1 to i8
  %11 = getelementptr inbounds i8, ptr %0, i64 40
  store i8 %10, ptr %11, align 8
  store i32 -1, ptr %3, align 8
  %12 = getelementptr inbounds i8, ptr %3, i64 4
  store i32 -1, ptr %12, align 4
  %13 = getelementptr inbounds i8, ptr %3, i64 8
  call void @llvm.memset.p0.i64(ptr noundef nonnull align 8 dereferenceable(16) %13, i8 0, i64 16, i1 false)
  %14 = load ptr, ptr %0, align 8
  %15 = getelementptr inbounds i8, ptr %14, i64 120
  %16 = load ptr, ptr %15, align 8
  %17 = call noundef i32 %16(ptr noundef nonnull align 8 dereferenceable(41) %0, ptr noundef nonnull align 8 dereferenceable(24) %3)
  %18 = icmp sgt i32 %17, 0
  br i1 %18, label %19, label %_ZN5QListIiED2Ev.exit

19:                                               ; preds = %2
  store i32 -1, ptr %5, align 8
  %20 = getelementptr inbounds i8, ptr %5, i64 4
  store i32 -1, ptr %20, align 4
  %21 = getelementptr inbounds i8, ptr %5, i64 8
  call void @llvm.memset.p0.i64(ptr noundef nonnull align 8 dereferenceable(16) %21, i8 0, i64 16, i1 false)
  %22 = load ptr, ptr %0, align 8
  %23 = getelementptr inbounds i8, ptr %22, i64 96
  %24 = load ptr, ptr %23, align 8
  call void %24(ptr dead_on_unwind nonnull writable sret(%class.QModelIndex) align 8 %4, ptr noundef nonnull align 8 dereferenceable(16) %0, i32 noundef 0, i32 noundef 0, ptr noundef nonnull align 8 dereferenceable(24) %5)
  store i32 -1, ptr %7, align 8
  %25 = getelementptr inbounds i8, ptr %7, i64 4
  store i32 -1, ptr %25, align 4
  %26 = getelementptr inbounds i8, ptr %7, i64 8
  call void @llvm.memset.p0.i64(ptr noundef nonnull align 8 dereferenceable(16) %26, i8 0, i64 16, i1 false)
  %27 = load ptr, ptr %0, align 8
  %28 = getelementptr inbounds i8, ptr %27, i64 120
  %29 = load ptr, ptr %28, align 8
  %30 = call noundef i32 %29(ptr noundef nonnull align 8 dereferenceable(41) %0, ptr noundef nonnull align 8 dereferenceable(24) %7)
  %31 = add i32 %30, -1
  store i32 -1, ptr %8, align 8
  %32 = getelementptr inbounds i8, ptr %8, i64 4
  store i32 -1, ptr %32, align 4
  %33 = getelementptr inbounds i8, ptr %8, i64 8
  call void @llvm.memset.p0.i64(ptr noundef nonnull align 8 dereferenceable(16) %33, i8 0, i64 16, i1 false)
  %34 = load ptr, ptr %0, align 8
  %35 = getelementptr inbounds i8, ptr %34, i64 96
  %36 = load ptr, ptr %35, align 8
  call void %36(ptr dead_on_unwind nonnull writable sret(%class.QModelIndex) align 8 %6, ptr noundef nonnull align 8 dereferenceable(16) %0, i32 noundef %31, i32 noundef 1, ptr noundef nonnull align 8 dereferenceable(24) %8)
  call void @llvm.memset.p0.i64(ptr noundef nonnull align 8 dereferenceable(24) %9, i8 0, i64 24, i1 false)
  invoke void @_ZN18QAbstractItemModel11dataChangedERK11QModelIndexS2_RK5QListIiE(ptr noundef nonnull align 8 dereferenceable(16) %0, ptr noundef nonnull align 8 dereferenceable(24) %4, ptr noundef nonnull align 8 dereferenceable(24) %6, ptr noundef nonnull align 8 dereferenceable(24) %9)
          to label %37 unwind label %42

37:                                               ; preds = %19
  %38 = load ptr, ptr %9, align 8
  %.not.i.i.i = icmp eq ptr %38, null
  br i1 %.not.i.i.i, label %_ZN5QListIiED2Ev.exit, label %_ZN17QArrayDataPointerIiE5derefEv.exit.i.i

_ZN17QArrayDataPointerIiE5derefEv.exit.i.i:       ; preds = %37
  %39 = atomicrmw sub ptr %38, i32 1 seq_cst, align 4
  %.not.i.i = icmp eq i32 %39, 1
  br i1 %.not.i.i, label %40, label %_ZN5QListIiED2Ev.exit

40:                                               ; preds = %_ZN17QArrayDataPointerIiE5derefEv.exit.i.i
  %41 = load ptr, ptr %9, align 8
  call void @_ZN10QArrayData10deallocateEPS_xx(ptr noundef %41, i64 noundef 4, i64 noundef 8) #16
  br label %_ZN5QListIiED2Ev.exit

42:                                               ; preds = %19
  %43 = landingpad { ptr, i32 }
          cleanup
  %44 = load ptr, ptr %9, align 8
  %.not.i.i.i3 = icmp eq ptr %44, null
  br i1 %.not.i.i.i3, label %_ZN5QListIiED2Ev.exit6, label %_ZN17QArrayDataPointerIiE5derefEv.exit.i.i4

_ZN17QArrayDataPointerIiE5derefEv.exit.i.i4:      ; preds = %42
  %45 = atomicrmw sub ptr %44, i32 1 seq_cst, align 4
  %.not.i.i5 = icmp eq i32 %45, 1
  br i1 %.not.i.i5, label %46, label %_ZN5QListIiED2Ev.exit6

46:                                               ; preds = %_ZN17QArrayDataPointerIiE5derefEv.exit.i.i4
  %47 = load ptr, ptr %9, align 8
  call void @_ZN10QArrayData10deallocateEPS_xx(ptr noundef %47, i64 noundef 4, i64 noundef 8) #16
  br label %_ZN5QListIiED2Ev.exit6

_ZN5QListIiED2Ev.exit6:                           ; preds = %42, %_ZN17QArrayDataPointerIiE5derefEv.exit.i.i4, %46
  resume { ptr, i32 } %43

_ZN5QListIiED2Ev.exit:                            ; preds = %40, %_ZN17QArrayDataPointerIiE5derefEv.exit.i.i, %37, %2
  ret void
}